target datalayout = "e-m:e-p270:32:32-p271:32:32-p272:64:64-i64:64-i128:128-f80:128-n8:16:32:64-S128"
target triple = "x86_64-pc-linux-gnu"

%struct.H5D_chunk_rec_t = type { [33 x i64], i32, i32, i64 }

@.str.2 = private unnamed_addr constant [103 x i8] c"generated/home/dtcxzyw/WorkSpace/Projects/compilers/llvm-opt-benchmark/bench/hdf5/hdf5/src/H5Dfarray.c\00", align 1
@H5E_DATASET_g = external global i64, align 8
@H5E_CANTFREE_g = external global i64, align 8
@.str.33 = private unnamed_addr constant [21 x i8] c"unable to free chunk\00", align 1
@__func__.H5D__farray_idx_delete_cb = private unnamed_addr constant [26 x i8] c"H5D__farray_idx_delete_cb\00", align 1

; Function Attrs: nounwind uwtable
define internal i32 @H5D__farray_idx_delete_cb(ptr noundef %0, ptr noundef %1) #0 {
  %3 = alloca ptr, align 8
  %4 = alloca ptr, align 8
  %5 = alloca ptr, align 8
  %6 = alloca i32, align 4
  %7 = alloca i8, align 1
  store ptr %0, ptr %3, align 8
  store ptr %1, ptr %4, align 8
  %8 = load ptr, ptr %4, align 8
  store ptr %8, ptr %5, align 8
  store i32 0, ptr %6, align 4
  store i8 0, ptr %7, align 1
  %9 = load ptr, ptr %5, align 8
  %10 = load ptr, ptr %3, align 8
  %11 = getelementptr inbounds %struct.H5D_chunk_rec_t, ptr %10, i32 0, i32 3
  %12 = load i64, ptr %11, align 8
  %13 = load ptr, ptr %3, align 8
  %14 = getelementptr inbounds %struct.H5D_chunk_rec_t, ptr %13, i32 0, i32 1
  %15 = load i32, ptr %14, align 8
  %16 = zext i32 %15 to i64
  %17 = call i32 @H5MF_xfree(ptr noundef %9, i32 noundef 3, i64 noundef %12, i64 noundef %16)
  %18 = icmp slt i32 %17, 0
  br i1 %18, label %19, label %34

19:                                               ; preds = %2
  br label %20

20:                                               ; preds = %19
  br label %21

21:                                               ; preds = %20
  br label %22

22:                                               ; preds = %21
  %23 = load i64, ptr @H5E_DATASET_g, align 8
  %24 = load i64, ptr @H5E_CANTFREE_g, align 8
  %25 = call i32 (ptr, ptr, i32, i64, i64, ptr, ...) @H5E_printf_stack(ptr noundef @.str.2, ptr noundef @__func__.H5D__farray_idx_delete_cb, i32 noundef 1372, i64 noundef %23, i64 noundef %24, ptr noundef @.str.33)
  br label %26

26:                                               ; preds = %22
  store i8 1, ptr %7, align 1
  %27 = load i8, ptr %7, align 1
  %28 = trunc i8 %27 to i1
  %29 = zext i1 %28 to i8
  store i8 %29, ptr %7, align 1
  br label %30

30:                                               ; preds = %26
  br label %31

31:                                               ; preds = %30
  store i32 -1, ptr %6, align 4
  br label %35

32:                                               ; No predecessors!
  br label %33

33:                                               ; preds = %32
  br label %34

34:                                               ; preds = %33, %2
  br label %35

35:                                               ; preds = %34, %31
  %36 = load i32, ptr %6, align 4
  ret i32 %36
}